target datalayout = "e-m:e-p270:32:32-p271:32:32-p272:64:64-i64:64-i128:128-f80:128-n8:16:32:64-S128"
target triple = "x86_64-pc-linux-gnu"

%class.CFGElement = type { ptr, double }
%class.GrowableArrayBase = type { i32, i32 }
%class.GrowableArrayMetadata = type { i64 }
%class.CFGLoop = type { %class.CFGElement, i32, i32, ptr, ptr, ptr, %class.GrowableArray.13, %class.GrowableArray.16, double }
%class.GrowableArray.13 = type { %class.GrowableArrayWithAllocator.14, %class.GrowableArrayMetadata }
%class.GrowableArrayWithAllocator.14 = type { %class.GrowableArrayView.15 }
%class.GrowableArrayView.15 = type { %class.GrowableArrayBase, ptr }
%class.GrowableArray.16 = type { %class.GrowableArrayWithAllocator.17, %class.GrowableArrayMetadata }
%class.GrowableArrayWithAllocator.17 = type { %class.GrowableArrayView.18 }
%class.GrowableArrayView.18 = type { %class.GrowableArrayBase, ptr }

; Function Attrs: mustprogress nounwind uwtable
define hidden void @_ZN7CFGLoop18compute_loop_depthEi(ptr noundef nonnull align 8 dereferenceable(104) %0, i32 noundef %1) #1 align 2 {
  %3 = alloca ptr, align 8
  %4 = alloca i32, align 4
  %5 = alloca ptr, align 8
  store ptr %0, ptr %3, align 8
  store i32 %1, ptr %4, align 4
  %6 = load ptr, ptr %3, align 8
  %7 = load i32, ptr %4, align 4
  %8 = getelementptr inbounds %class.CFGLoop, ptr %6, i32 0, i32 2
  store i32 %7, ptr %8, align 4
  %9 = getelementptr inbounds %class.CFGLoop, ptr %6, i32 0, i32 5
  %10 = load ptr, ptr %9, align 8
  store ptr %10, ptr %5, align 8
  br label %11

11:                                               ; preds = %14, %2
  %12 = load ptr, ptr %5, align 8
  %13 = icmp ne ptr %12, null
  br i1 %13, label %14, label %21

14:                                               ; preds = %11
  %15 = load ptr, ptr %5, align 8
  %16 = load i32, ptr %4, align 4
  %17 = add nsw i32 %16, 1
  call void @_ZN7CFGLoop18compute_loop_depthEi(ptr noundef nonnull align 8 dereferenceable(104) %15, i32 noundef %17)
  %18 = load ptr, ptr %5, align 8
  %19 = getelementptr inbounds %class.CFGLoop, ptr %18, i32 0, i32 4
  %20 = load ptr, ptr %19, align 8
  store ptr %20, ptr %5, align 8
  br label %11, !llvm.loop !62

21:                                               ; preds = %11
  ret void
}