; Function Attrs: mustprogress nofree nosync nounwind memory(readwrite, inaccessiblemem: none) uwtable
define hidden void @_ZN7CFGLoop18compute_loop_depthEi(ptr nocapture noundef nonnull align 8 dereferenceable(104) %0, i32 noundef %1) local_unnamed_addr #5 align 2 {
  %3 = getelementptr inbounds i8, ptr %0, i64 20
  store i32 %1, ptr %3, align 4
  %4 = getelementptr inbounds i8, ptr %0, i64 40
  %.05 = load ptr, ptr %4, align 8
  %.not6 = icmp eq ptr %.05, null
  br i1 %.not6, label %._crit_edge, label %.lr.ph

.lr.ph:                                           ; preds = %2
  %5 = add nsw i32 %1, 1
  br label %6

6:                                                ; preds = %.lr.ph, %6
  %.07 = phi ptr [ %.05, %.lr.ph ], [ %.0, %6 ]
  tail call void @_ZN7CFGLoop18compute_loop_depthEi(ptr noundef nonnull align 8 dereferenceable(104) %.07, i32 noundef %5)
  %7 = getelementptr inbounds i8, ptr %.07, i64 32
  %.0 = load ptr, ptr %7, align 8
  %.not = icmp eq ptr %.0, null
  br i1 %.not, label %._crit_edge, label %6, !llvm.loop !68

._crit_edge:                                      ; preds = %6, %2
  ret void
}